; Function Attrs: nounwind uwtable
define i32 @MRIStepGetNumRhsEvals(ptr noundef %0, ptr noundef %1, ptr noundef %2) local_unnamed_addr #0 {
  %4 = tail call i32 @ARKodeGetNumRhsEvals(ptr noundef %0, i32 noundef 0, ptr noundef %1) #5
  %.not = icmp eq i32 %4, 0
  br i1 %.not, label %5, label %7

5:                                                ; preds = %3
  %6 = tail call i32 @ARKodeGetNumRhsEvals(ptr noundef %0, i32 noundef 1, ptr noundef %2) #5
  br label %7

7:                                                ; preds = %5, %3
  %.0 = phi i32 [ %4, %3 ], [ %6, %5 ]
  ret i32 %.0
}